; Function Attrs: mustprogress uwtable
define hidden noundef zeroext i1 @_ZN4cvc58internal6theory9datatypes5utils10checkClashENS0_12NodeTemplateILb1EEES5_RSt6vectorIS5_SaIS5_EEb(ptr noundef readonly captures(none) %0, ptr noundef readonly captures(none) %1, ptr noundef nonnull align 8 dereferenceable(24) %2, i1 noundef zeroext %3) local_unnamed_addr #3 personality ptr @__gxx_personality_v0 {
  %5 = alloca %"class.std::vector.137", align 8
  %6 = alloca %"class.cvc5::internal::NodeTemplate", align 8
  %7 = alloca %"class.cvc5::internal::NodeTemplate", align 8
  call void @llvm.lifetime.start.p0(i64 24, ptr nonnull %5) #22
  call void @llvm.memset.p0.i64(ptr noundef nonnull align 8 dereferenceable(24) %5, i8 0, i64 24, i1 false)
  %8 = load ptr, ptr %0, align 8, !tbaa !11
  store ptr %8, ptr %6, align 8, !tbaa !11
  %9 = load i64, ptr %8, align 8
  %10 = lshr i64 %9, 40
  %11 = trunc nuw nsw i64 %10 to i32
  %12 = and i32 %11, 1048575
  %13 = icmp samesign ult i32 %12, 1048574
  br i1 %13, label %14, label %19, !prof !9

14:                                               ; preds = %4
  %15 = add i64 %9, 1099511627776
  %16 = and i64 %15, 1152920405095219200
  %17 = and i64 %9, -1152920405095219201
  %18 = or disjoint i64 %16, %17
  store i64 %18, ptr %8, align 8
  br label %_ZN4cvc58internal12NodeTemplateILb1EEC2ERKS2_.exit

19:                                               ; preds = %4
  %20 = icmp eq i32 %12, 1048574
  br i1 %20, label %21, label %_ZN4cvc58internal12NodeTemplateILb1EEC2ERKS2_.exit, !prof !10

21:                                               ; preds = %19
  %22 = or i64 %9, 1152920405095219200
  store i64 %22, ptr %8, align 8
  tail call void @_ZN4cvc58internal4expr9NodeValue20markRefCountMaxedOutEv(ptr noundef nonnull align 8 dereferenceable(24) %8)
  br label %_ZN4cvc58internal12NodeTemplateILb1EEC2ERKS2_.exit

_ZN4cvc58internal12NodeTemplateILb1EEC2ERKS2_.exit: ; preds = %21, %19, %14
  %23 = load ptr, ptr %1, align 8, !tbaa !11
  store ptr %23, ptr %7, align 8, !tbaa !11
  %24 = load i64, ptr %23, align 8
  %25 = lshr i64 %24, 40
  %26 = trunc nuw nsw i64 %25 to i32
  %27 = and i32 %26, 1048575
  %28 = icmp samesign ult i32 %27, 1048574
  br i1 %28, label %29, label %34, !prof !9

29:                                               ; preds = %_ZN4cvc58internal12NodeTemplateILb1EEC2ERKS2_.exit
  %30 = add i64 %24, 1099511627776
  %31 = and i64 %30, 1152920405095219200
  %32 = and i64 %24, -1152920405095219201
  %33 = or disjoint i64 %31, %32
  store i64 %33, ptr %23, align 8
  br label %_ZN4cvc58internal12NodeTemplateILb1EEC2ERKS2_.exit8

34:                                               ; preds = %_ZN4cvc58internal12NodeTemplateILb1EEC2ERKS2_.exit
  %35 = icmp eq i32 %27, 1048574
  br i1 %35, label %36, label %_ZN4cvc58internal12NodeTemplateILb1EEC2ERKS2_.exit8, !prof !10

36:                                               ; preds = %34
  %37 = or i64 %24, 1152920405095219200
  store i64 %37, ptr %23, align 8
  invoke void @_ZN4cvc58internal4expr9NodeValue20markRefCountMaxedOutEv(ptr noundef nonnull align 8 dereferenceable(24) %23)
          to label %_ZN4cvc58internal12NodeTemplateILb1EEC2ERKS2_.exit8 unwind label %.thread17

_ZN4cvc58internal12NodeTemplateILb1EEC2ERKS2_.exit8: ; preds = %34, %29, %36
  %38 = invoke noundef zeroext i1 @_ZN4cvc58internal6theory9datatypes5utils10checkClashENS0_12NodeTemplateILb1EEES5_RSt6vectorIS5_SaIS5_EEbRS6_ImSaImEE(ptr noundef nonnull %6, ptr noundef nonnull %7, ptr noundef nonnull align 8 dereferenceable(24) %2, i1 noundef zeroext %3, ptr noundef nonnull align 8 dereferenceable(24) %5)
          to label %39 unwind label %74

39:                                               ; preds = %_ZN4cvc58internal12NodeTemplateILb1EEC2ERKS2_.exit8
  %40 = load ptr, ptr %7, align 8, !tbaa !11
  %41 = load i64, ptr %40, align 8
  %42 = and i64 %41, 1152920405095219200
  %.not.i.i = icmp eq i64 %42, 1152920405095219200
  br i1 %.not.i.i, label %_ZN4cvc58internal12NodeTemplateILb1EED2Ev.exit, label %43, !prof !10

43:                                               ; preds = %39
  %44 = add i64 %41, 1152920405095219200
  %45 = and i64 %44, 1152920405095219200
  %46 = and i64 %41, -1152920405095219201
  %47 = or disjoint i64 %45, %46
  store i64 %47, ptr %40, align 8
  %48 = icmp eq i64 %45, 0
  br i1 %48, label %49, label %_ZN4cvc58internal12NodeTemplateILb1EED2Ev.exit, !prof !10

49:                                               ; preds = %43
  invoke void @_ZN4cvc58internal4expr9NodeValue15markForDeletionEv(ptr noundef nonnull align 8 dereferenceable(24) %40)
          to label %_ZN4cvc58internal12NodeTemplateILb1EED2Ev.exit unwind label %50

50:                                               ; preds = %49
  %51 = landingpad { ptr, i32 }
          catch ptr null
  %52 = extractvalue { ptr, i32 } %51, 0
  call void @__clang_call_terminate(ptr %52) #21
  unreachable

_ZN4cvc58internal12NodeTemplateILb1EED2Ev.exit:   ; preds = %39, %43, %49
  %53 = load ptr, ptr %6, align 8, !tbaa !11
  %54 = load i64, ptr %53, align 8
  %55 = and i64 %54, 1152920405095219200
  %.not.i.i9 = icmp eq i64 %55, 1152920405095219200
  br i1 %.not.i.i9, label %_ZN4cvc58internal12NodeTemplateILb1EED2Ev.exit10, label %56, !prof !10

56:                                               ; preds = %_ZN4cvc58internal12NodeTemplateILb1EED2Ev.exit
  %57 = add i64 %54, 1152920405095219200
  %58 = and i64 %57, 1152920405095219200
  %59 = and i64 %54, -1152920405095219201
  %60 = or disjoint i64 %58, %59
  store i64 %60, ptr %53, align 8
  %61 = icmp eq i64 %58, 0
  br i1 %61, label %62, label %_ZN4cvc58internal12NodeTemplateILb1EED2Ev.exit10, !prof !10

62:                                               ; preds = %56
  invoke void @_ZN4cvc58internal4expr9NodeValue15markForDeletionEv(ptr noundef nonnull align 8 dereferenceable(24) %53)
          to label %_ZN4cvc58internal12NodeTemplateILb1EED2Ev.exit10 unwind label %63

63:                                               ; preds = %62
  %64 = landingpad { ptr, i32 }
          catch ptr null
  %65 = extractvalue { ptr, i32 } %64, 0
  call void @__clang_call_terminate(ptr %65) #21
  unreachable

_ZN4cvc58internal12NodeTemplateILb1EED2Ev.exit10: ; preds = %_ZN4cvc58internal12NodeTemplateILb1EED2Ev.exit, %56, %62
  %66 = load ptr, ptr %5, align 8, !tbaa !67
  %.not.i.i.i = icmp eq ptr %66, null
  br i1 %.not.i.i.i, label %_ZNSt6vectorImSaImEED2Ev.exit, label %67

67:                                               ; preds = %_ZN4cvc58internal12NodeTemplateILb1EED2Ev.exit10
  %68 = getelementptr inbounds nuw i8, ptr %5, i64 16
  %69 = load ptr, ptr %68, align 8, !tbaa !70
  %70 = ptrtoint ptr %69 to i64
  %71 = ptrtoint ptr %66 to i64
  %72 = sub i64 %70, %71
  call void @_ZdlPvm(ptr noundef nonnull %66, i64 noundef %72) #25
  br label %_ZNSt6vectorImSaImEED2Ev.exit

_ZNSt6vectorImSaImEED2Ev.exit:                    ; preds = %_ZN4cvc58internal12NodeTemplateILb1EED2Ev.exit10, %67
  call void @llvm.lifetime.end.p0(i64 24, ptr nonnull %5) #22
  ret i1 %38

.thread17:                                        ; preds = %36
  %73 = landingpad { ptr, i32 }
          cleanup
  call void @_ZN4cvc58internal12NodeTemplateILb1EED2Ev(ptr noundef nonnull align 8 dereferenceable(8) %6) #22
  br label %_ZNSt6vectorImSaImEED2Ev.exit12

74:                                               ; preds = %_ZN4cvc58internal12NodeTemplateILb1EEC2ERKS2_.exit8
  %75 = landingpad { ptr, i32 }
          cleanup
  call void @_ZN4cvc58internal12NodeTemplateILb1EED2Ev(ptr noundef nonnull align 8 dereferenceable(8) %7) #22
  %.pre.pre = load ptr, ptr %5, align 8, !tbaa !67
  call void @_ZN4cvc58internal12NodeTemplateILb1EED2Ev(ptr noundef nonnull align 8 dereferenceable(8) %6) #22
  %.not.i.i.i11 = icmp eq ptr %.pre.pre, null
  br i1 %.not.i.i.i11, label %_ZNSt6vectorImSaImEED2Ev.exit12, label %76

76:                                               ; preds = %74
  %77 = getelementptr inbounds nuw i8, ptr %5, i64 16
  %78 = load ptr, ptr %77, align 8, !tbaa !70
  %79 = ptrtoint ptr %78 to i64
  %80 = ptrtoint ptr %.pre.pre to i64
  %81 = sub i64 %79, %80
  call void @_ZdlPvm(ptr noundef nonnull %.pre.pre, i64 noundef %81) #25
  br label %_ZNSt6vectorImSaImEED2Ev.exit12

_ZNSt6vectorImSaImEED2Ev.exit12:                  ; preds = %.thread17, %74, %76
  %.pn.pn16 = phi { ptr, i32 } [ %75, %74 ], [ %75, %76 ], [ %73, %.thread17 ]
  call void @llvm.lifetime.end.p0(i64 24, ptr nonnull %5) #22
  resume { ptr, i32 } %.pn.pn16
}